target datalayout = "e-m:e-p270:32:32-p271:32:32-p272:64:64-i64:64-i128:128-f80:128-n8:16:32:64-S128"
target triple = "x86_64-pc-linux-gnu"

; Function Attrs: nounwind uwtable
define dso_local i32 @uv_cwd(ptr noundef %0, ptr noundef %1) #0 {
  %3 = alloca i32, align 4
  %4 = alloca ptr, align 8
  %5 = alloca ptr, align 8
  %6 = alloca [4097 x i8], align 16
  %7 = alloca i32, align 4
  store ptr %0, ptr %4, align 8
  store ptr %1, ptr %5, align 8
  call void @llvm.lifetime.start.p0(i64 4097, ptr %6) #11
  %8 = load ptr, ptr %4, align 8
  %9 = icmp eq ptr %8, null
  br i1 %9, label %17, label %10

10:                                               ; preds = %2
  %11 = load ptr, ptr %5, align 8
  %12 = icmp eq ptr %11, null
  br i1 %12, label %17, label %13

13:                                               ; preds = %10
  %14 = load ptr, ptr %5, align 8
  %15 = load i64, ptr %14, align 8
  %16 = icmp eq i64 %15, 0
  br i1 %16, label %17, label %18

17:                                               ; preds = %13, %10, %2
  store i32 -22, ptr %3, align 4
  store i32 1, ptr %7, align 4
  br label %76

18:                                               ; preds = %13
  %19 = load ptr, ptr %4, align 8
  %20 = load ptr, ptr %5, align 8
  %21 = load i64, ptr %20, align 8
  %22 = call ptr @getcwd(ptr noundef %19, i64 noundef %21) #11
  %23 = icmp ne ptr %22, null
  br i1 %23, label %24, label %25

24:                                               ; preds = %18
  br label %43

25:                                               ; preds = %18
  %26 = call ptr @__errno_location() #12
  %27 = load i32, ptr %26, align 4
  %28 = icmp ne i32 %27, 34
  br i1 %28, label %29, label %33

29:                                               ; preds = %25
  %30 = call ptr @__errno_location() #12
  %31 = load i32, ptr %30, align 4
  %32 = sub nsw i32 0, %31
  store i32 %32, ptr %3, align 4
  store i32 1, ptr %7, align 4
  br label %76

33:                                               ; preds = %25
  %34 = getelementptr inbounds [4097 x i8], ptr %6, i64 0, i64 0
  %35 = call ptr @getcwd(ptr noundef %34, i64 noundef 4097) #11
  %36 = icmp eq ptr %35, null
  br i1 %36, label %37, label %41

37:                                               ; preds = %33
  %38 = call ptr @__errno_location() #12
  %39 = load i32, ptr %38, align 4
  %40 = sub nsw i32 0, %39
  store i32 %40, ptr %3, align 4
  store i32 1, ptr %7, align 4
  br label %76

41:                                               ; preds = %33
  %42 = getelementptr inbounds [4097 x i8], ptr %6, i64 0, i64 0
  store ptr %42, ptr %4, align 8
  br label %43

43:                                               ; preds = %41, %24
  %44 = load ptr, ptr %4, align 8
  %45 = call i64 @strlen(ptr noundef %44) #13
  %46 = load ptr, ptr %5, align 8
  store i64 %45, ptr %46, align 8
  %47 = load ptr, ptr %5, align 8
  %48 = load i64, ptr %47, align 8
  %49 = icmp ugt i64 %48, 1
  br i1 %49, label %50, label %67

50:                                               ; preds = %43
  %51 = load ptr, ptr %4, align 8
  %52 = load ptr, ptr %5, align 8
  %53 = load i64, ptr %52, align 8
  %54 = sub i64 %53, 1
  %55 = getelementptr inbounds nuw i8, ptr %51, i64 %54
  %56 = load i8, ptr %55, align 1
  %57 = sext i8 %56 to i32
  %58 = icmp eq i32 %57, 47
  br i1 %58, label %59, label %67

59:                                               ; preds = %50
  %60 = load ptr, ptr %5, align 8
  %61 = load i64, ptr %60, align 8
  %62 = sub i64 %61, 1
  store i64 %62, ptr %60, align 8
  %63 = load ptr, ptr %4, align 8
  %64 = load ptr, ptr %5, align 8
  %65 = load i64, ptr %64, align 8
  %66 = getelementptr inbounds nuw i8, ptr %63, i64 %65
  store i8 0, ptr %66, align 1
  br label %67

67:                                               ; preds = %59, %50, %43
  %68 = load ptr, ptr %4, align 8
  %69 = getelementptr inbounds [4097 x i8], ptr %6, i64 0, i64 0
  %70 = icmp eq ptr %68, %69
  br i1 %70, label %71, label %75

71:                                               ; preds = %67
  %72 = load ptr, ptr %5, align 8
  %73 = load i64, ptr %72, align 8
  %74 = add i64 %73, 1
  store i64 %74, ptr %72, align 8
  store i32 -105, ptr %3, align 4
  store i32 1, ptr %7, align 4
  br label %76

75:                                               ; preds = %67
  store i32 0, ptr %3, align 4
  store i32 1, ptr %7, align 4
  br label %76

76:                                               ; preds = %75, %71, %37, %29, %17
  call void @llvm.lifetime.end.p0(i64 4097, ptr %6) #11
  %77 = load i32, ptr %3, align 4
  ret i32 %77
}