; Function Attrs: nounwind uwtable
define dso_local range(i32 -2147483647, -2147483648) i32 @uv_cwd(ptr noundef %0, ptr noundef captures(address_is_null) %1) local_unnamed_addr #0 {
  %3 = alloca [4097 x i8], align 16
  call void @llvm.lifetime.start.p0(i64 4097, ptr nonnull %3) #23
  %4 = icmp eq ptr %0, null
  %5 = icmp eq ptr %1, null
  %or.cond = or i1 %4, %5
  br i1 %or.cond, label %36, label %6

6:                                                ; preds = %2
  %7 = load i64, ptr %1, align 8
  %8 = icmp eq i64 %7, 0
  br i1 %8, label %36, label %9

9:                                                ; preds = %6
  %10 = tail call ptr @getcwd(ptr noundef nonnull %0, i64 noundef %7) #23
  %.not = icmp eq ptr %10, null
  br i1 %.not, label %11, label %22

11:                                               ; preds = %9
  %12 = tail call ptr @__errno_location() #24
  %13 = load i32, ptr %12, align 4
  %.not22 = icmp eq i32 %13, 34
  br i1 %.not22, label %16, label %14

14:                                               ; preds = %11
  %15 = sub nsw i32 0, %13
  br label %36

16:                                               ; preds = %11
  %17 = call ptr @getcwd(ptr noundef nonnull %3, i64 noundef 4097) #23
  %18 = icmp eq ptr %17, null
  br i1 %18, label %19, label %22

19:                                               ; preds = %16
  %20 = load i32, ptr %12, align 4
  %21 = sub nsw i32 0, %20
  br label %36

22:                                               ; preds = %16, %9
  %.016 = phi ptr [ %0, %9 ], [ %3, %16 ]
  %23 = call i64 @strlen(ptr noundef nonnull dereferenceable(1) %.016) #25
  store i64 %23, ptr %1, align 8
  %24 = icmp ugt i64 %23, 1
  br i1 %24, label %25, label %31

25:                                               ; preds = %22
  %26 = add i64 %23, -1
  %27 = getelementptr inbounds nuw i8, ptr %.016, i64 %26
  %28 = load i8, ptr %27, align 1
  %29 = icmp eq i8 %28, 47
  br i1 %29, label %30, label %31

30:                                               ; preds = %25
  store i64 %26, ptr %1, align 8
  store i8 0, ptr %27, align 1
  br label %31

31:                                               ; preds = %30, %25, %22
  %32 = icmp eq ptr %.016, %3
  br i1 %32, label %33, label %36

33:                                               ; preds = %31
  %34 = load i64, ptr %1, align 8
  %35 = add i64 %34, 1
  store i64 %35, ptr %1, align 8
  br label %36

36:                                               ; preds = %31, %2, %6, %33, %19, %14
  %.0 = phi i32 [ -105, %33 ], [ %15, %14 ], [ %21, %19 ], [ -22, %6 ], [ -22, %2 ], [ 0, %31 ]
  call void @llvm.lifetime.end.p0(i64 4097, ptr nonnull %3) #23
  ret i32 %.0
}